; Function Attrs: inlinehint nofree norecurse nosync nounwind memory(argmem: readwrite) uwtable
define internal void @rgb24tobgr32_c(ptr noundef readonly captures(address) %0, ptr noundef writeonly captures(none) %1, i32 noundef %2) #3 {
  %4 = sext i32 %2 to i64
  %5 = getelementptr inbounds i8, ptr %0, i64 %4
  %6 = icmp sgt i32 %2, 0
  br i1 %6, label %.lr.ph, label %._crit_edge

.lr.ph:                                           ; preds = %3, %.lr.ph
  %.014 = phi ptr [ %16, %.lr.ph ], [ %1, %3 ]
  %.01213 = phi ptr [ %13, %.lr.ph ], [ %0, %3 ]
  %7 = getelementptr inbounds nuw i8, ptr %.01213, i64 1
  %8 = load i8, ptr %.01213, align 1, !tbaa !8
  %9 = getelementptr inbounds nuw i8, ptr %.014, i64 1
  store i8 %8, ptr %.014, align 1, !tbaa !8
  %10 = getelementptr inbounds nuw i8, ptr %.01213, i64 2
  %11 = load i8, ptr %7, align 1, !tbaa !8
  %12 = getelementptr inbounds nuw i8, ptr %.014, i64 2
  store i8 %11, ptr %9, align 1, !tbaa !8
  %13 = getelementptr inbounds nuw i8, ptr %.01213, i64 3
  %14 = load i8, ptr %10, align 1, !tbaa !8
  %15 = getelementptr inbounds nuw i8, ptr %.014, i64 3
  store i8 %14, ptr %12, align 1, !tbaa !8
  %16 = getelementptr inbounds nuw i8, ptr %.014, i64 4
  store i8 -1, ptr %15, align 1, !tbaa !8
  %17 = icmp ult ptr %13, %5
  br i1 %17, label %.lr.ph, label %._crit_edge, !llvm.loop !54

._crit_edge:                                      ; preds = %.lr.ph, %3
  ret void
}